target datalayout = "e-m:e-p270:32:32-p271:32:32-p272:64:64-i64:64-i128:128-f80:128-n8:16:32:64-S128"
target triple = "x86_64-pc-linux-gnu"

%class.OopIterateClosure = type { %class.OopClosure, ptr }
%class.OopClosure = type { ptr }
%class.TimeInstant = type { %class.CompositeCounterRepresentation }
%class.CompositeCounterRepresentation = type { %class.Representation }
%class.Representation = type { %class.PairRep }
%class.PairRep = type { i64, i64 }
%class.G1EvacPhaseWithTrimTimeTracker = type <{ ptr, %class.TimeInstant, ptr, ptr, i8, [7 x i8] }>
%class.TimeInterval = type { %class.CompositeCounterRepresentation }
%class.G1ParScanThreadState = type { ptr, ptr, ptr, %class.G1RedirtyCardsLocalQueueSet, ptr, ptr, ptr, %class.AgeTable, i32, [4 x i8], %class.G1ScanEvacuatedObjClosure, i32, i64, i32, i32, %class.TimeInterval, ptr, ptr, i64, i8, i32, %class.PartialArrayTaskStepper, %"class.StringDedup::Requests", i64, ptr, ptr, ptr, ptr, %class.EvacuationFailedInfo, ptr, i64 }
%class.G1RedirtyCardsLocalQueueSet = type { %class.PtrQueueSet, ptr, %struct.BufferNodeList, %"class.G1RedirtyCardsLocalQueueSet::Queue" }
%class.PtrQueueSet = type { ptr, ptr }
%struct.BufferNodeList = type { ptr, ptr, i64 }
%"class.G1RedirtyCardsLocalQueueSet::Queue" = type { %class.PtrQueue }
%class.PtrQueue = type { i64, ptr }
%class.AgeTable = type { [16 x i64], i8, [16 x ptr] }
%class.G1ScanEvacuatedObjClosure = type <{ %class.G1ScanClosureBase, i32, [4 x i8] }>
%class.G1ScanClosureBase = type { %class.BasicOopIterateClosure, ptr, ptr }
%class.BasicOopIterateClosure = type { %class.OopIterateClosure }
%class.PartialArrayTaskStepper = type { i32, i32 }
%"class.StringDedup::Requests" = type <{ ptr, ptr, i64, i8, [7 x i8] }>
%class.EvacuationFailedInfo = type { %class.CopyFailedInfo.base, [4 x i8] }
%class.CopyFailedInfo.base = type <{ ptr, i64, i64, i64, i32 }>

; Function Attrs: mustprogress nounwind uwtable
define linkonce_odr hidden { i64, i64 } @_ZmiIllE7PairRepIT_T0_ERKS3_S5_(ptr noundef nonnull align 8 dereferenceable(16) %0, ptr noundef nonnull align 8 dereferenceable(16) %1) #1 comdat {
  %3 = alloca %class.PairRep, align 8
  %4 = alloca ptr, align 8
  %5 = alloca ptr, align 8
  store ptr %0, ptr %4, align 8
  store ptr %1, ptr %5, align 8
  %6 = load ptr, ptr %4, align 8
  call void @llvm.memcpy.p0.p0.i64(ptr align 8 %3, ptr align 8 %6, i64 16, i1 false)
  %7 = load ptr, ptr %5, align 8
  call void @_ZN7PairRepIllEmIERKS0_(ptr noundef nonnull align 8 dereferenceable(16) %3, ptr noundef nonnull align 8 dereferenceable(16) %7)
  %8 = load { i64, i64 }, ptr %3, align 8
  ret { i64, i64 } %8
}

; Function Attrs: mustprogress nounwind uwtable
define linkonce_odr hidden void @_ZN7PairRepIllEC2Ev(ptr noundef nonnull align 8 dereferenceable(16) %0) unnamed_addr #1 comdat align 2 {
  %2 = alloca ptr, align 8
  store ptr %0, ptr %2, align 8
  %3 = load ptr, ptr %2, align 8
  %4 = getelementptr inbounds %class.PairRep, ptr %3, i32 0, i32 0
  store i64 0, ptr %4, align 8
  %5 = getelementptr inbounds %class.PairRep, ptr %3, i32 0, i32 1
  store i64 0, ptr %5, align 8
  ret void
}

; Function Attrs: mustprogress nounwind uwtable
define linkonce_odr hidden void @_ZN14RepresentationI29CompositeElapsedCounterSourceEC2ERKS1_S3_(ptr noundef nonnull align 8 dereferenceable(16) %0, ptr noundef nonnull align 8 dereferenceable(16) %1, ptr noundef nonnull align 8 dereferenceable(16) %2) unnamed_addr #1 comdat align 2 {
  %4 = alloca ptr, align 8
  %5 = alloca ptr, align 8
  %6 = alloca ptr, align 8
  store ptr %0, ptr %4, align 8
  store ptr %1, ptr %5, align 8
  store ptr %2, ptr %6, align 8
  %7 = load ptr, ptr %4, align 8
  %8 = getelementptr inbounds %class.Representation, ptr %7, i32 0, i32 0
  %9 = load ptr, ptr %5, align 8
  %10 = getelementptr inbounds %class.Representation, ptr %9, i32 0, i32 0
  %11 = load ptr, ptr %6, align 8
  %12 = getelementptr inbounds %class.Representation, ptr %11, i32 0, i32 0
  %13 = call { i64, i64 } @_ZmiIllE7PairRepIT_T0_ERKS3_S5_(ptr noundef nonnull align 8 dereferenceable(16) %10, ptr noundef nonnull align 8 dereferenceable(16) %12)
  %14 = getelementptr inbounds { i64, i64 }, ptr %8, i32 0, i32 0
  %15 = extractvalue { i64, i64 } %13, 0
  store i64 %15, ptr %14, align 8
  %16 = getelementptr inbounds { i64, i64 }, ptr %8, i32 0, i32 1
  %17 = extractvalue { i64, i64 } %13, 1
  store i64 %17, ptr %16, align 8
  ret void
}

; Function Attrs: mustprogress nounwind uwtable
define linkonce_odr hidden void @_ZN14RepresentationI29CompositeElapsedCounterSourceEC2Ev(ptr noundef nonnull align 8 dereferenceable(16) %0) unnamed_addr #1 comdat align 2 {
  %2 = alloca ptr, align 8
  store ptr %0, ptr %2, align 8
  %3 = load ptr, ptr %2, align 8
  %4 = getelementptr inbounds %class.Representation, ptr %3, i32 0, i32 0
  call void @_ZN7PairRepIllEC2Ev(ptr noundef nonnull align 8 dereferenceable(16) %4)
  ret void
}

; Function Attrs: mustprogress nounwind uwtable
define linkonce_odr hidden void @_ZN7PairRepIllEmIERKS0_(ptr noundef nonnull align 8 dereferenceable(16) %0, ptr noundef nonnull align 8 dereferenceable(16) %1) #1 comdat align 2 {
  %3 = alloca ptr, align 8
  %4 = alloca ptr, align 8
  store ptr %0, ptr %3, align 8
  store ptr %1, ptr %4, align 8
  %5 = load ptr, ptr %3, align 8
  %6 = load ptr, ptr %4, align 8
  %7 = getelementptr inbounds %class.PairRep, ptr %6, i32 0, i32 0
  %8 = load i64, ptr %7, align 8
  %9 = getelementptr inbounds %class.PairRep, ptr %5, i32 0, i32 0
  %10 = load i64, ptr %9, align 8
  %11 = sub nsw i64 %10, %8
  store i64 %11, ptr %9, align 8
  %12 = load ptr, ptr %4, align 8
  %13 = getelementptr inbounds %class.PairRep, ptr %12, i32 0, i32 1
  %14 = load i64, ptr %13, align 8
  %15 = getelementptr inbounds %class.PairRep, ptr %5, i32 0, i32 1
  %16 = load i64, ptr %15, align 8
  %17 = sub nsw i64 %16, %14
  store i64 %17, ptr %15, align 8
  ret void
}

; Function Attrs: mustprogress nounwind uwtable
define linkonce_odr hidden void @_ZN30CompositeCounterRepresentationI29CompositeElapsedCounterSourceEC2ERKS1_S3_(ptr noundef nonnull align 8 dereferenceable(16) %0, ptr noundef nonnull align 8 dereferenceable(16) %1, ptr noundef nonnull align 8 dereferenceable(16) %2) unnamed_addr #1 comdat align 2 {
  %4 = alloca ptr, align 8
  %5 = alloca ptr, align 8
  %6 = alloca ptr, align 8
  store ptr %0, ptr %4, align 8
  store ptr %1, ptr %5, align 8
  store ptr %2, ptr %6, align 8
  %7 = load ptr, ptr %4, align 8
  %8 = load ptr, ptr %5, align 8
  %9 = load ptr, ptr %6, align 8
  call void @_ZN14RepresentationI29CompositeElapsedCounterSourceEC2ERKS1_S3_(ptr noundef nonnull align 8 dereferenceable(16) %7, ptr noundef nonnull align 8 dereferenceable(16) %8, ptr noundef nonnull align 8 dereferenceable(16) %9)
  ret void
}

; Function Attrs: mustprogress nounwind uwtable
define linkonce_odr hidden void @_ZN30CompositeCounterRepresentationI29CompositeElapsedCounterSourceEC2Ev(ptr noundef nonnull align 8 dereferenceable(16) %0) unnamed_addr #1 comdat align 2 {
  %2 = alloca ptr, align 8
  store ptr %0, ptr %2, align 8
  %3 = load ptr, ptr %2, align 8
  call void @_ZN14RepresentationI29CompositeElapsedCounterSourceEC2Ev(ptr noundef nonnull align 8 dereferenceable(16) %3)
  ret void
}

; Function Attrs: mustprogress nounwind uwtable
define linkonce_odr hidden void @_ZN12TimeIntervalI30CompositeCounterRepresentation29CompositeElapsedCounterSourceEC2Ev(ptr noundef nonnull align 8 dereferenceable(16) %0) unnamed_addr #1 comdat align 2 {
  %2 = alloca ptr, align 8
  store ptr %0, ptr %2, align 8
  %3 = load ptr, ptr %2, align 8
  call void @_ZN30CompositeCounterRepresentationI29CompositeElapsedCounterSourceEC2Ev(ptr noundef nonnull align 8 dereferenceable(16) %3)
  ret void
}

; Function Attrs: mustprogress nounwind uwtable
define linkonce_odr hidden void @_ZN7PairRepIllEpLERKS0_(ptr noundef nonnull align 8 dereferenceable(16) %0, ptr noundef nonnull align 8 dereferenceable(16) %1) #1 comdat align 2 {
  %3 = alloca ptr, align 8
  %4 = alloca ptr, align 8
  store ptr %0, ptr %3, align 8
  store ptr %1, ptr %4, align 8
  %5 = load ptr, ptr %3, align 8
  %6 = load ptr, ptr %4, align 8
  %7 = getelementptr inbounds %class.PairRep, ptr %6, i32 0, i32 0
  %8 = load i64, ptr %7, align 8
  %9 = getelementptr inbounds %class.PairRep, ptr %5, i32 0, i32 0
  %10 = load i64, ptr %9, align 8
  %11 = add nsw i64 %10, %8
  store i64 %11, ptr %9, align 8
  %12 = load ptr, ptr %4, align 8
  %13 = getelementptr inbounds %class.PairRep, ptr %12, i32 0, i32 1
  %14 = load i64, ptr %13, align 8
  %15 = getelementptr inbounds %class.PairRep, ptr %5, i32 0, i32 1
  %16 = load i64, ptr %15, align 8
  %17 = add nsw i64 %16, %14
  store i64 %17, ptr %15, align 8
  ret void
}

; Function Attrs: mustprogress nounwind uwtable
define linkonce_odr hidden void @_ZN14RepresentationI29CompositeElapsedCounterSourceEmIERKS1_(ptr noundef nonnull align 8 dereferenceable(16) %0, ptr noundef nonnull align 8 dereferenceable(16) %1) #1 comdat align 2 {
  %3 = alloca ptr, align 8
  %4 = alloca ptr, align 8
  store ptr %0, ptr %3, align 8
  store ptr %1, ptr %4, align 8
  %5 = load ptr, ptr %3, align 8
  %6 = load ptr, ptr %4, align 8
  %7 = getelementptr inbounds %class.Representation, ptr %6, i32 0, i32 0
  %8 = getelementptr inbounds %class.Representation, ptr %5, i32 0, i32 0
  call void @_ZN7PairRepIllEmIERKS0_(ptr noundef nonnull align 8 dereferenceable(16) %8, ptr noundef nonnull align 8 dereferenceable(16) %7)
  ret void
}

; Function Attrs: mustprogress nounwind uwtable
define linkonce_odr hidden void @_ZN12TimeIntervalI30CompositeCounterRepresentation29CompositeElapsedCounterSourceEC2ERK11TimeInstantIS0_S1_ES6_(ptr noundef nonnull align 8 dereferenceable(16) %0, ptr noundef nonnull align 8 dereferenceable(16) %1, ptr noundef nonnull align 8 dereferenceable(16) %2) unnamed_addr #1 comdat align 2 {
  %4 = alloca ptr, align 8
  %5 = alloca ptr, align 8
  %6 = alloca ptr, align 8
  store ptr %0, ptr %4, align 8
  store ptr %1, ptr %5, align 8
  store ptr %2, ptr %6, align 8
  %7 = load ptr, ptr %4, align 8
  %8 = load ptr, ptr %5, align 8
  %9 = load ptr, ptr %6, align 8
  call void @_ZN30CompositeCounterRepresentationI29CompositeElapsedCounterSourceEC2ERKS1_S3_(ptr noundef nonnull align 8 dereferenceable(16) %7, ptr noundef nonnull align 8 dereferenceable(16) %8, ptr noundef nonnull align 8 dereferenceable(16) %9)
  ret void
}

; Function Attrs: mustprogress nounwind uwtable
define linkonce_odr hidden void @_ZN11TimeInstantI30CompositeCounterRepresentation29CompositeElapsedCounterSourceE5stampEv(ptr noundef nonnull align 8 dereferenceable(16) %0) #1 comdat align 2 {
  %2 = alloca ptr, align 8
  %3 = alloca %class.PairRep, align 8
  store ptr %0, ptr %2, align 8
  %4 = load ptr, ptr %2, align 8
  %5 = call { i64, i64 } @_ZN29CompositeElapsedCounterSource3nowEv()
  %6 = getelementptr inbounds { i64, i64 }, ptr %3, i32 0, i32 0
  %7 = extractvalue { i64, i64 } %5, 0
  store i64 %7, ptr %6, align 8
  %8 = getelementptr inbounds { i64, i64 }, ptr %3, i32 0, i32 1
  %9 = extractvalue { i64, i64 } %5, 1
  store i64 %9, ptr %8, align 8
  %10 = getelementptr inbounds %class.Representation, ptr %4, i32 0, i32 0
  call void @llvm.memcpy.p0.p0.i64(ptr align 8 %10, ptr align 8 %3, i64 16, i1 false)
  ret void
}

; Function Attrs: mustprogress nounwind uwtable
define linkonce_odr hidden void @_ZN11TimeInstantI30CompositeCounterRepresentation29CompositeElapsedCounterSourceEC2Ev(ptr noundef nonnull align 8 dereferenceable(16) %0) unnamed_addr #1 comdat align 2 {
  %2 = alloca ptr, align 8
  store ptr %0, ptr %2, align 8
  %3 = load ptr, ptr %2, align 8
  call void @_ZN30CompositeCounterRepresentationI29CompositeElapsedCounterSourceEC2Ev(ptr noundef nonnull align 8 dereferenceable(16) %3)
  ret void
}

; Function Attrs: mustprogress nounwind uwtable
define linkonce_odr hidden void @_ZN20G1ParScanThreadState16reset_trim_ticksEv(ptr noundef nonnull align 8 dereferenceable(632) %0) #1 comdat align 2 {
  %2 = alloca ptr, align 8
  %3 = alloca %class.TimeInterval, align 8
  store ptr %0, ptr %2, align 8
  %4 = load ptr, ptr %2, align 8
  call void @_ZN12TimeIntervalI30CompositeCounterRepresentation29CompositeElapsedCounterSourceEC2Ev(ptr noundef nonnull align 8 dereferenceable(16) %3)
  %5 = getelementptr inbounds %class.G1ParScanThreadState, ptr %4, i32 0, i32 15
  call void @llvm.memcpy.p0.p0.i64(ptr align 8 %5, ptr align 8 %3, i64 16, i1 false)
  ret void
}

; Function Attrs: mustprogress nounwind uwtable
define linkonce_odr hidden void @_ZN14RepresentationI29CompositeElapsedCounterSourceEpLERKS1_(ptr noundef nonnull align 8 dereferenceable(16) %0, ptr noundef nonnull align 8 dereferenceable(16) %1) #1 comdat align 2 {
  %3 = alloca ptr, align 8
  %4 = alloca ptr, align 8
  store ptr %0, ptr %3, align 8
  store ptr %1, ptr %4, align 8
  %5 = load ptr, ptr %3, align 8
  %6 = load ptr, ptr %4, align 8
  %7 = getelementptr inbounds %class.Representation, ptr %6, i32 0, i32 0
  %8 = getelementptr inbounds %class.Representation, ptr %5, i32 0, i32 0
  call void @_ZN7PairRepIllEpLERKS0_(ptr noundef nonnull align 8 dereferenceable(16) %8, ptr noundef nonnull align 8 dereferenceable(16) %7)
  ret void
}

; Function Attrs: mustprogress nounwind uwtable
define linkonce_odr hidden { i64, i64 } @_ZNK12TimeIntervalI30CompositeCounterRepresentation29CompositeElapsedCounterSourceEmiERKS2_(ptr noundef nonnull align 8 dereferenceable(16) %0, ptr noundef nonnull align 8 dereferenceable(16) %1) #1 comdat align 2 {
  %3 = alloca %class.TimeInterval, align 8
  %4 = alloca ptr, align 8
  %5 = alloca ptr, align 8
  store ptr %0, ptr %4, align 8
  store ptr %1, ptr %5, align 8
  %6 = load ptr, ptr %4, align 8
  call void @llvm.memcpy.p0.p0.i64(ptr align 8 %3, ptr align 8 %6, i64 16, i1 false)
  %7 = load ptr, ptr %5, align 8
  call void @_ZN14RepresentationI29CompositeElapsedCounterSourceEmIERKS1_(ptr noundef nonnull align 8 dereferenceable(16) %3, ptr noundef nonnull align 8 dereferenceable(16) %7)
  %8 = getelementptr inbounds %class.TimeInterval, ptr %3, i32 0, i32 0
  %9 = getelementptr inbounds %class.CompositeCounterRepresentation, ptr %8, i32 0, i32 0
  %10 = getelementptr inbounds %class.Representation, ptr %9, i32 0, i32 0
  %11 = load { i64, i64 }, ptr %10, align 8
  ret { i64, i64 } %11
}

; Function Attrs: mustprogress nounwind uwtable
define linkonce_odr hidden { i64, i64 } @_ZNK20G1ParScanThreadState10trim_ticksEv(ptr noundef nonnull align 8 dereferenceable(632) %0) #1 comdat align 2 {
  %2 = alloca %class.TimeInterval, align 8
  %3 = alloca ptr, align 8
  store ptr %0, ptr %3, align 8
  %4 = load ptr, ptr %3, align 8
  %5 = getelementptr inbounds %class.G1ParScanThreadState, ptr %4, i32 0, i32 15
  call void @llvm.memcpy.p0.p0.i64(ptr align 8 %2, ptr align 8 %5, i64 16, i1 false)
  %6 = getelementptr inbounds %class.TimeInterval, ptr %2, i32 0, i32 0
  %7 = getelementptr inbounds %class.CompositeCounterRepresentation, ptr %6, i32 0, i32 0
  %8 = getelementptr inbounds %class.Representation, ptr %7, i32 0, i32 0
  %9 = load { i64, i64 }, ptr %8, align 8
  ret { i64, i64 } %9
}

; Function Attrs: mustprogress nounwind uwtable
define linkonce_odr hidden { i64, i64 } @_ZNK11TimeInstantI30CompositeCounterRepresentation29CompositeElapsedCounterSourceEmiERKS2_(ptr noundef nonnull align 8 dereferenceable(16) %0, ptr noundef nonnull align 8 dereferenceable(16) %1) #1 comdat align 2 {
  %3 = alloca %class.TimeInterval, align 8
  %4 = alloca ptr, align 8
  %5 = alloca ptr, align 8
  store ptr %0, ptr %4, align 8
  store ptr %1, ptr %5, align 8
  %6 = load ptr, ptr %4, align 8
  %7 = load ptr, ptr %5, align 8
  call void @_ZN12TimeIntervalI30CompositeCounterRepresentation29CompositeElapsedCounterSourceEC2ERK11TimeInstantIS0_S1_ES6_(ptr noundef nonnull align 8 dereferenceable(16) %3, ptr noundef nonnull align 8 dereferenceable(16) %6, ptr noundef nonnull align 8 dereferenceable(16) %7)
  %8 = getelementptr inbounds %class.TimeInterval, ptr %3, i32 0, i32 0
  %9 = getelementptr inbounds %class.CompositeCounterRepresentation, ptr %8, i32 0, i32 0
  %10 = getelementptr inbounds %class.Representation, ptr %9, i32 0, i32 0
  %11 = load { i64, i64 }, ptr %10, align 8
  ret { i64, i64 } %11
}

; Function Attrs: mustprogress nounwind uwtable
define linkonce_odr hidden { i64, i64 } @_ZN11TimeInstantI30CompositeCounterRepresentation29CompositeElapsedCounterSourceE3nowEv() #1 comdat align 2 {
  %1 = alloca %class.TimeInstant, align 8
  call void @_ZN11TimeInstantI30CompositeCounterRepresentation29CompositeElapsedCounterSourceEC2Ev(ptr noundef nonnull align 8 dereferenceable(16) %1)
  call void @_ZN11TimeInstantI30CompositeCounterRepresentation29CompositeElapsedCounterSourceE5stampEv(ptr noundef nonnull align 8 dereferenceable(16) %1)
  %2 = getelementptr inbounds %class.TimeInstant, ptr %1, i32 0, i32 0
  %3 = getelementptr inbounds %class.CompositeCounterRepresentation, ptr %2, i32 0, i32 0
  %4 = getelementptr inbounds %class.Representation, ptr %3, i32 0, i32 0
  %5 = load { i64, i64 }, ptr %4, align 8
  ret { i64, i64 } %5
}

; Function Attrs: mustprogress nounwind uwtable
define hidden void @_ZN30G1EvacPhaseWithTrimTimeTracker4stopEv(ptr noundef nonnull align 8 dereferenceable(41) %0) #1 align 2 {
  %2 = alloca ptr, align 8
  %3 = alloca %class.TimeInterval, align 8
  %4 = alloca %class.TimeInterval, align 8
  %5 = alloca %class.TimeInstant, align 8
  %6 = alloca %class.TimeInterval, align 8
  %7 = alloca %class.TimeInterval, align 8
  store ptr %0, ptr %2, align 8
  %8 = load ptr, ptr %2, align 8
  %9 = call { i64, i64 } @_ZN11TimeInstantI30CompositeCounterRepresentation29CompositeElapsedCounterSourceE3nowEv()
  %10 = getelementptr inbounds %class.TimeInstant, ptr %5, i32 0, i32 0
  %11 = getelementptr inbounds %class.CompositeCounterRepresentation, ptr %10, i32 0, i32 0
  %12 = getelementptr inbounds %class.Representation, ptr %11, i32 0, i32 0
  %13 = getelementptr inbounds { i64, i64 }, ptr %12, i32 0, i32 0
  %14 = extractvalue { i64, i64 } %9, 0
  store i64 %14, ptr %13, align 8
  %15 = getelementptr inbounds { i64, i64 }, ptr %12, i32 0, i32 1
  %16 = extractvalue { i64, i64 } %9, 1
  store i64 %16, ptr %15, align 8
  %17 = getelementptr inbounds %class.G1EvacPhaseWithTrimTimeTracker, ptr %8, i32 0, i32 1
  %18 = call { i64, i64 } @_ZNK11TimeInstantI30CompositeCounterRepresentation29CompositeElapsedCounterSourceEmiERKS2_(ptr noundef nonnull align 8 dereferenceable(16) %5, ptr noundef nonnull align 8 dereferenceable(16) %17)
  %19 = getelementptr inbounds %class.TimeInterval, ptr %4, i32 0, i32 0
  %20 = getelementptr inbounds %class.CompositeCounterRepresentation, ptr %19, i32 0, i32 0
  %21 = getelementptr inbounds %class.Representation, ptr %20, i32 0, i32 0
  %22 = getelementptr inbounds { i64, i64 }, ptr %21, i32 0, i32 0
  %23 = extractvalue { i64, i64 } %18, 0
  store i64 %23, ptr %22, align 8
  %24 = getelementptr inbounds { i64, i64 }, ptr %21, i32 0, i32 1
  %25 = extractvalue { i64, i64 } %18, 1
  store i64 %25, ptr %24, align 8
  %26 = getelementptr inbounds %class.G1EvacPhaseWithTrimTimeTracker, ptr %8, i32 0, i32 0
  %27 = load ptr, ptr %26, align 8
  %28 = call { i64, i64 } @_ZNK20G1ParScanThreadState10trim_ticksEv(ptr noundef nonnull align 8 dereferenceable(632) %27)
  %29 = getelementptr inbounds %class.TimeInterval, ptr %6, i32 0, i32 0
  %30 = getelementptr inbounds %class.CompositeCounterRepresentation, ptr %29, i32 0, i32 0
  %31 = getelementptr inbounds %class.Representation, ptr %30, i32 0, i32 0
  %32 = getelementptr inbounds { i64, i64 }, ptr %31, i32 0, i32 0
  %33 = extractvalue { i64, i64 } %28, 0
  store i64 %33, ptr %32, align 8
  %34 = getelementptr inbounds { i64, i64 }, ptr %31, i32 0, i32 1
  %35 = extractvalue { i64, i64 } %28, 1
  store i64 %35, ptr %34, align 8
  %36 = call { i64, i64 } @_ZNK12TimeIntervalI30CompositeCounterRepresentation29CompositeElapsedCounterSourceEmiERKS2_(ptr noundef nonnull align 8 dereferenceable(16) %4, ptr noundef nonnull align 8 dereferenceable(16) %6)
  %37 = getelementptr inbounds %class.TimeInterval, ptr %3, i32 0, i32 0
  %38 = getelementptr inbounds %class.CompositeCounterRepresentation, ptr %37, i32 0, i32 0
  %39 = getelementptr inbounds %class.Representation, ptr %38, i32 0, i32 0
  %40 = getelementptr inbounds { i64, i64 }, ptr %39, i32 0, i32 0
  %41 = extractvalue { i64, i64 } %36, 0
  store i64 %41, ptr %40, align 8
  %42 = getelementptr inbounds { i64, i64 }, ptr %39, i32 0, i32 1
  %43 = extractvalue { i64, i64 } %36, 1
  store i64 %43, ptr %42, align 8
  %44 = getelementptr inbounds %class.G1EvacPhaseWithTrimTimeTracker, ptr %8, i32 0, i32 2
  %45 = load ptr, ptr %44, align 8
  call void @_ZN14RepresentationI29CompositeElapsedCounterSourceEpLERKS1_(ptr noundef nonnull align 8 dereferenceable(16) %45, ptr noundef nonnull align 8 dereferenceable(16) %3)
  %46 = getelementptr inbounds %class.G1EvacPhaseWithTrimTimeTracker, ptr %8, i32 0, i32 0
  %47 = load ptr, ptr %46, align 8
  %48 = call { i64, i64 } @_ZNK20G1ParScanThreadState10trim_ticksEv(ptr noundef nonnull align 8 dereferenceable(632) %47)
  %49 = getelementptr inbounds %class.TimeInterval, ptr %7, i32 0, i32 0
  %50 = getelementptr inbounds %class.CompositeCounterRepresentation, ptr %49, i32 0, i32 0
  %51 = getelementptr inbounds %class.Representation, ptr %50, i32 0, i32 0
  %52 = getelementptr inbounds { i64, i64 }, ptr %51, i32 0, i32 0
  %53 = extractvalue { i64, i64 } %48, 0
  store i64 %53, ptr %52, align 8
  %54 = getelementptr inbounds { i64, i64 }, ptr %51, i32 0, i32 1
  %55 = extractvalue { i64, i64 } %48, 1
  store i64 %55, ptr %54, align 8
  %56 = getelementptr inbounds %class.G1EvacPhaseWithTrimTimeTracker, ptr %8, i32 0, i32 3
  %57 = load ptr, ptr %56, align 8
  call void @_ZN14RepresentationI29CompositeElapsedCounterSourceEpLERKS1_(ptr noundef nonnull align 8 dereferenceable(16) %57, ptr noundef nonnull align 8 dereferenceable(16) %7)
  %58 = getelementptr inbounds %class.G1EvacPhaseWithTrimTimeTracker, ptr %8, i32 0, i32 0
  %59 = load ptr, ptr %58, align 8
  call void @_ZN20G1ParScanThreadState16reset_trim_ticksEv(ptr noundef nonnull align 8 dereferenceable(632) %59)
  %60 = getelementptr inbounds %class.G1EvacPhaseWithTrimTimeTracker, ptr %8, i32 0, i32 4
  store i8 1, ptr %60, align 8
  ret void
}