; Function Attrs: mustprogress nounwind uwtable
define hidden void @_ZN30G1EvacPhaseWithTrimTimeTracker4stopEv(ptr nocapture noundef nonnull align 8 dereferenceable(41) %0) local_unnamed_addr #0 align 2 {
  %2 = tail call { i64, i64 } @_ZN29CompositeElapsedCounterSource3nowEv() #18
  %3 = extractvalue { i64, i64 } %2, 0
  %4 = extractvalue { i64, i64 } %2, 1
  %5 = getelementptr inbounds i8, ptr %0, i64 8
  %6 = load ptr, ptr %0, align 8
  %7 = getelementptr inbounds i8, ptr %6, i64 448
  %8 = getelementptr inbounds i8, ptr %0, i64 24
  %9 = load ptr, ptr %8, align 8
  %10 = load <2 x i64>, ptr %5, align 8
  %11 = load <2 x i64>, ptr %7, align 8
  %12 = load <2 x i64>, ptr %9, align 8
  %13 = add <2 x i64> %10, %11
  %14 = insertelement <2 x i64> poison, i64 %3, i64 0
  %15 = insertelement <2 x i64> %14, i64 %4, i64 1
  %16 = sub <2 x i64> %15, %13
  %17 = add nsw <2 x i64> %16, %12
  store <2 x i64> %17, ptr %9, align 8
  %18 = load ptr, ptr %0, align 8
  %19 = getelementptr inbounds i8, ptr %18, i64 448
  %20 = getelementptr inbounds i8, ptr %0, i64 32
  %21 = load ptr, ptr %20, align 8
  %22 = load <2 x i64>, ptr %19, align 8
  %23 = load <2 x i64>, ptr %21, align 8
  %24 = add nsw <2 x i64> %23, %22
  store <2 x i64> %24, ptr %21, align 8
  %25 = load ptr, ptr %0, align 8
  %26 = getelementptr inbounds i8, ptr %25, i64 448
  tail call void @llvm.memset.p0.i64(ptr noundef nonnull align 8 dereferenceable(16) %26, i8 0, i64 16, i1 false)
  %27 = getelementptr inbounds i8, ptr %0, i64 40
  store i8 1, ptr %27, align 8
  ret void
}